target datalayout = "e-m:e-p270:32:32-p271:32:32-p272:64:64-i64:64-i128:128-f80:128-n8:16:32:64-S128"
target triple = "x86_64-pc-linux-gnu"

@__const._init_unbounded_coeffs.x = private unnamed_addr constant [4 x float] [float 0x3FE6666660000000, float 0x3FE99999A0000000, float 0x3FECCCCCC0000000, float 1.000000e+00], align 16

; Function Attrs: inlinehint nounwind uwtable
define internal void @dt_iop_estimate_exp(ptr noundef %0, ptr noundef %1, i32 noundef %2, ptr noundef %3) #2 {
  %5 = alloca ptr, align 8
  %6 = alloca ptr, align 8
  %7 = alloca i32, align 4
  %8 = alloca ptr, align 8
  %9 = alloca float, align 4
  %10 = alloca float, align 4
  %11 = alloca float, align 4
  %12 = alloca i32, align 4
  %13 = alloca i32, align 4
  %14 = alloca float, align 4
  %15 = alloca float, align 4
  %16 = alloca float, align 4
  store ptr %0, ptr %5, align 8, !tbaa !22
  store ptr %1, ptr %6, align 8, !tbaa !22
  store i32 %2, ptr %7, align 4, !tbaa !11
  store ptr %3, ptr %8, align 8, !tbaa !22
  call void @llvm.lifetime.start.p0(i64 4, ptr %9) #10
  %17 = load ptr, ptr %5, align 8, !tbaa !22
  %18 = load i32, ptr %7, align 4, !tbaa !11
  %19 = sub nsw i32 %18, 1
  %20 = sext i32 %19 to i64
  %21 = getelementptr inbounds float, ptr %17, i64 %20
  %22 = load float, ptr %21, align 4, !tbaa !18
  store float %22, ptr %9, align 4, !tbaa !18
  call void @llvm.lifetime.start.p0(i64 4, ptr %10) #10
  %23 = load ptr, ptr %6, align 8, !tbaa !22
  %24 = load i32, ptr %7, align 4, !tbaa !11
  %25 = sub nsw i32 %24, 1
  %26 = sext i32 %25 to i64
  %27 = getelementptr inbounds float, ptr %23, i64 %26
  %28 = load float, ptr %27, align 4, !tbaa !18
  store float %28, ptr %10, align 4, !tbaa !18
  call void @llvm.lifetime.start.p0(i64 4, ptr %11) #10
  store float 0.000000e+00, ptr %11, align 4, !tbaa !18
  call void @llvm.lifetime.start.p0(i64 4, ptr %12) #10
  store i32 0, ptr %12, align 4, !tbaa !11
  call void @llvm.lifetime.start.p0(i64 4, ptr %13) #10
  store i32 0, ptr %13, align 4, !tbaa !11
  br label %29

29:                                               ; preds = %79, %4
  %30 = load i32, ptr %13, align 4, !tbaa !11
  %31 = load i32, ptr %7, align 4, !tbaa !11
  %32 = sub nsw i32 %31, 1
  %33 = icmp slt i32 %30, %32
  br i1 %33, label %35, label %34

34:                                               ; preds = %29
  call void @llvm.lifetime.end.p0(i64 4, ptr %13) #10
  br label %82

35:                                               ; preds = %29
  call void @llvm.lifetime.start.p0(i64 4, ptr %14) #10
  %36 = load ptr, ptr %6, align 8, !tbaa !22
  %37 = load i32, ptr %13, align 4, !tbaa !11
  %38 = sext i32 %37 to i64
  %39 = getelementptr inbounds float, ptr %36, i64 %38
  %40 = load float, ptr %39, align 4, !tbaa !18
  %41 = load float, ptr %10, align 4, !tbaa !18
  %42 = fdiv reassoc nsz arcp contract afn float %40, %41
  store float %42, ptr %14, align 4, !tbaa !18
  call void @llvm.lifetime.start.p0(i64 4, ptr %15) #10
  %43 = load ptr, ptr %5, align 8, !tbaa !22
  %44 = load i32, ptr %13, align 4, !tbaa !11
  %45 = sext i32 %44 to i64
  %46 = getelementptr inbounds float, ptr %43, i64 %45
  %47 = load float, ptr %46, align 4, !tbaa !18
  %48 = load float, ptr %9, align 4, !tbaa !18
  %49 = fdiv reassoc nsz arcp contract afn float %47, %48
  store float %49, ptr %15, align 4, !tbaa !18
  %50 = load float, ptr %14, align 4, !tbaa !18
  %51 = fcmp reassoc nsz arcp contract afn ogt float %50, 0.000000e+00
  br i1 %51, label %52, label %78

52:                                               ; preds = %35
  %53 = load float, ptr %15, align 4, !tbaa !18
  %54 = fcmp reassoc nsz arcp contract afn ogt float %53, 0.000000e+00
  br i1 %54, label %55, label %78

55:                                               ; preds = %52
  call void @llvm.lifetime.start.p0(i64 4, ptr %16) #10
  %56 = load ptr, ptr %6, align 8, !tbaa !22
  %57 = load i32, ptr %13, align 4, !tbaa !11
  %58 = sext i32 %57 to i64
  %59 = getelementptr inbounds float, ptr %56, i64 %58
  %60 = load float, ptr %59, align 4, !tbaa !18
  %61 = load float, ptr %10, align 4, !tbaa !18
  %62 = fdiv reassoc nsz arcp contract afn float %60, %61
  %63 = call reassoc nsz arcp contract afn float @llvm.log.f32(float %62)
  %64 = load ptr, ptr %5, align 8, !tbaa !22
  %65 = load i32, ptr %13, align 4, !tbaa !11
  %66 = sext i32 %65 to i64
  %67 = getelementptr inbounds float, ptr %64, i64 %66
  %68 = load float, ptr %67, align 4, !tbaa !18
  %69 = load float, ptr %9, align 4, !tbaa !18
  %70 = fdiv reassoc nsz arcp contract afn float %68, %69
  %71 = call reassoc nsz arcp contract afn float @llvm.log.f32(float %70)
  %72 = fdiv reassoc nsz arcp contract afn float %63, %71
  store float %72, ptr %16, align 4, !tbaa !18
  %73 = load float, ptr %16, align 4, !tbaa !18
  %74 = load float, ptr %11, align 4, !tbaa !18
  %75 = fadd reassoc nsz arcp contract afn float %74, %73
  store float %75, ptr %11, align 4, !tbaa !18
  %76 = load i32, ptr %12, align 4, !tbaa !11
  %77 = add nsw i32 %76, 1
  store i32 %77, ptr %12, align 4, !tbaa !11
  call void @llvm.lifetime.end.p0(i64 4, ptr %16) #10
  br label %78

78:                                               ; preds = %55, %52, %35
  call void @llvm.lifetime.end.p0(i64 4, ptr %15) #10
  call void @llvm.lifetime.end.p0(i64 4, ptr %14) #10
  br label %79

79:                                               ; preds = %78
  %80 = load i32, ptr %13, align 4, !tbaa !11
  %81 = add nsw i32 %80, 1
  store i32 %81, ptr %13, align 4, !tbaa !11
  br label %29

82:                                               ; preds = %34
  %83 = load i32, ptr %12, align 4, !tbaa !11
  %84 = icmp ne i32 %83, 0
  br i1 %84, label %85, label %91

85:                                               ; preds = %82
  %86 = load i32, ptr %12, align 4, !tbaa !11
  %87 = sitofp i32 %86 to float
  %88 = fdiv reassoc nsz arcp contract afn float 1.000000e+00, %87
  %89 = load float, ptr %11, align 4, !tbaa !18
  %90 = fmul reassoc nsz arcp contract afn float %89, %88
  store float %90, ptr %11, align 4, !tbaa !18
  br label %92

91:                                               ; preds = %82
  store float 1.000000e+00, ptr %11, align 4, !tbaa !18
  br label %92

92:                                               ; preds = %91, %85
  %93 = load float, ptr %9, align 4, !tbaa !18
  %94 = fdiv reassoc nsz arcp contract afn float 1.000000e+00, %93
  %95 = load ptr, ptr %8, align 8, !tbaa !22
  %96 = getelementptr inbounds float, ptr %95, i64 0
  store float %94, ptr %96, align 4, !tbaa !18
  %97 = load float, ptr %10, align 4, !tbaa !18
  %98 = load ptr, ptr %8, align 8, !tbaa !22
  %99 = getelementptr inbounds float, ptr %98, i64 1
  store float %97, ptr %99, align 4, !tbaa !18
  %100 = load float, ptr %11, align 4, !tbaa !18
  %101 = load ptr, ptr %8, align 8, !tbaa !22
  %102 = getelementptr inbounds float, ptr %101, i64 2
  store float %100, ptr %102, align 4, !tbaa !18
  call void @llvm.lifetime.end.p0(i64 4, ptr %12) #10
  call void @llvm.lifetime.end.p0(i64 4, ptr %11) #10
  call void @llvm.lifetime.end.p0(i64 4, ptr %10) #10
  call void @llvm.lifetime.end.p0(i64 4, ptr %9) #10
  ret void
}

; Function Attrs: inlinehint nounwind uwtable
define internal float @extrapolate_lut(ptr noundef %0, float noundef %1, i32 noundef %2) #2 {
  %4 = alloca ptr, align 8
  %5 = alloca float, align 4
  %6 = alloca i32, align 4
  %7 = alloca float, align 4
  %8 = alloca i32, align 4
  %9 = alloca float, align 4
  %10 = alloca float, align 4
  %11 = alloca float, align 4
  store ptr %0, ptr %4, align 8, !tbaa !22
  store float %1, ptr %5, align 4, !tbaa !18
  store i32 %2, ptr %6, align 4, !tbaa !11
  call void @llvm.lifetime.start.p0(i64 4, ptr %7) #10
  %12 = load float, ptr %5, align 4, !tbaa !18
  %13 = load i32, ptr %6, align 4, !tbaa !11
  %14 = sub nsw i32 %13, 1
  %15 = sitofp i32 %14 to float
  %16 = fmul reassoc nsz arcp contract afn float %12, %15
  %17 = fcmp reassoc nsz arcp contract afn ogt float %16, 0.000000e+00
  br i1 %17, label %18, label %40

18:                                               ; preds = %3
  %19 = load float, ptr %5, align 4, !tbaa !18
  %20 = load i32, ptr %6, align 4, !tbaa !11
  %21 = sub nsw i32 %20, 1
  %22 = sitofp i32 %21 to float
  %23 = fmul reassoc nsz arcp contract afn float %19, %22
  %24 = load i32, ptr %6, align 4, !tbaa !11
  %25 = sub nsw i32 %24, 1
  %26 = sitofp i32 %25 to float
  %27 = fcmp reassoc nsz arcp contract afn olt float %23, %26
  br i1 %27, label %28, label %34

28:                                               ; preds = %18
  %29 = load float, ptr %5, align 4, !tbaa !18
  %30 = load i32, ptr %6, align 4, !tbaa !11
  %31 = sub nsw i32 %30, 1
  %32 = sitofp i32 %31 to float
  %33 = fmul reassoc nsz arcp contract afn float %29, %32
  br label %38

34:                                               ; preds = %18
  %35 = load i32, ptr %6, align 4, !tbaa !11
  %36 = sub nsw i32 %35, 1
  %37 = sitofp i32 %36 to float
  br label %38

38:                                               ; preds = %34, %28
  %39 = phi reassoc nsz arcp contract afn float [ %33, %28 ], [ %37, %34 ]
  br label %41

40:                                               ; preds = %3
  br label %41

41:                                               ; preds = %40, %38
  %42 = phi reassoc nsz arcp contract afn float [ %39, %38 ], [ 0.000000e+00, %40 ]
  store float %42, ptr %7, align 4, !tbaa !18
  call void @llvm.lifetime.start.p0(i64 4, ptr %8) #10
  %43 = load float, ptr %7, align 4, !tbaa !18
  %44 = load i32, ptr %6, align 4, !tbaa !11
  %45 = sub nsw i32 %44, 2
  %46 = sitofp i32 %45 to float
  %47 = fcmp reassoc nsz arcp contract afn olt float %43, %46
  br i1 %47, label %48, label %50

48:                                               ; preds = %41
  %49 = load float, ptr %7, align 4, !tbaa !18
  br label %54

50:                                               ; preds = %41
  %51 = load i32, ptr %6, align 4, !tbaa !11
  %52 = sub nsw i32 %51, 2
  %53 = sitofp i32 %52 to float
  br label %54

54:                                               ; preds = %50, %48
  %55 = phi reassoc nsz arcp contract afn float [ %49, %48 ], [ %53, %50 ]
  %56 = fptosi float %55 to i32
  store i32 %56, ptr %8, align 4, !tbaa !11
  call void @llvm.lifetime.start.p0(i64 4, ptr %9) #10
  %57 = load float, ptr %7, align 4, !tbaa !18
  %58 = load i32, ptr %8, align 4, !tbaa !11
  %59 = sitofp i32 %58 to float
  %60 = fsub reassoc nsz arcp contract afn float %57, %59
  store float %60, ptr %9, align 4, !tbaa !18
  call void @llvm.lifetime.start.p0(i64 4, ptr %10) #10
  %61 = load ptr, ptr %4, align 8, !tbaa !22
  %62 = load i32, ptr %8, align 4, !tbaa !11
  %63 = sext i32 %62 to i64
  %64 = getelementptr inbounds float, ptr %61, i64 %63
  %65 = load float, ptr %64, align 4, !tbaa !18
  store float %65, ptr %10, align 4, !tbaa !18
  call void @llvm.lifetime.start.p0(i64 4, ptr %11) #10
  %66 = load ptr, ptr %4, align 8, !tbaa !22
  %67 = load i32, ptr %8, align 4, !tbaa !11
  %68 = add nsw i32 %67, 1
  %69 = sext i32 %68 to i64
  %70 = getelementptr inbounds float, ptr %66, i64 %69
  %71 = load float, ptr %70, align 4, !tbaa !18
  store float %71, ptr %11, align 4, !tbaa !18
  %72 = load float, ptr %10, align 4, !tbaa !18
  %73 = load float, ptr %9, align 4, !tbaa !18
  %74 = fsub reassoc nsz arcp contract afn float 1.000000e+00, %73
  %75 = fmul reassoc nsz arcp contract afn float %72, %74
  %76 = load float, ptr %11, align 4, !tbaa !18
  %77 = load float, ptr %9, align 4, !tbaa !18
  %78 = fmul reassoc nsz arcp contract afn float %76, %77
  %79 = fadd reassoc nsz arcp contract afn float %75, %78
  call void @llvm.lifetime.end.p0(i64 4, ptr %11) #10
  call void @llvm.lifetime.end.p0(i64 4, ptr %10) #10
  call void @llvm.lifetime.end.p0(i64 4, ptr %9) #10
  call void @llvm.lifetime.end.p0(i64 4, ptr %8) #10
  call void @llvm.lifetime.end.p0(i64 4, ptr %7) #10
  ret float %79
}

; Function Attrs: inlinehint nounwind uwtable
define internal i32 @_init_unbounded_coeffs(ptr noundef %0, ptr noundef %1, ptr noundef %2, ptr noundef %3, ptr noundef %4, ptr noundef %5, i32 noundef %6) #2 {
  %8 = alloca ptr, align 8
  %9 = alloca ptr, align 8
  %10 = alloca ptr, align 8
  %11 = alloca ptr, align 8
  %12 = alloca ptr, align 8
  %13 = alloca ptr, align 8
  %14 = alloca i32, align 4
  %15 = alloca i32, align 4
  %16 = alloca [3 x ptr], align 16
  %17 = alloca [3 x ptr], align 16
  %18 = alloca i32, align 4
  %19 = alloca [4 x float], align 16
  %20 = alloca [4 x float], align 16
  store ptr %0, ptr %8, align 8, !tbaa !22
  store ptr %1, ptr %9, align 8, !tbaa !22
  store ptr %2, ptr %10, align 8, !tbaa !22
  store ptr %3, ptr %11, align 8, !tbaa !22
  store ptr %4, ptr %12, align 8, !tbaa !22
  store ptr %5, ptr %13, align 8, !tbaa !22
  store i32 %6, ptr %14, align 4, !tbaa !11
  call void @llvm.lifetime.start.p0(i64 4, ptr %15) #10
  store i32 0, ptr %15, align 4, !tbaa !11
  call void @llvm.lifetime.start.p0(i64 24, ptr %16) #10
  %21 = load ptr, ptr %8, align 8, !tbaa !22
  store ptr %21, ptr %16, align 8, !tbaa !22
  %22 = getelementptr inbounds ptr, ptr %16, i64 1
  %23 = load ptr, ptr %9, align 8, !tbaa !22
  store ptr %23, ptr %22, align 8, !tbaa !22
  %24 = getelementptr inbounds ptr, ptr %16, i64 2
  %25 = load ptr, ptr %10, align 8, !tbaa !22
  store ptr %25, ptr %24, align 8, !tbaa !22
  call void @llvm.lifetime.start.p0(i64 24, ptr %17) #10
  %26 = load ptr, ptr %11, align 8, !tbaa !22
  store ptr %26, ptr %17, align 8, !tbaa !22
  %27 = getelementptr inbounds ptr, ptr %17, i64 1
  %28 = load ptr, ptr %12, align 8, !tbaa !22
  store ptr %28, ptr %27, align 8, !tbaa !22
  %29 = getelementptr inbounds ptr, ptr %17, i64 2
  %30 = load ptr, ptr %13, align 8, !tbaa !22
  store ptr %30, ptr %29, align 8, !tbaa !22
  call void @llvm.lifetime.start.p0(i64 4, ptr %18) #10
  store i32 0, ptr %18, align 4, !tbaa !11
  br label %31

31:                                               ; preds = %94, %7
  %32 = load i32, ptr %18, align 4, !tbaa !11
  %33 = icmp slt i32 %32, 3
  br i1 %33, label %35, label %34

34:                                               ; preds = %31
  call void @llvm.lifetime.end.p0(i64 4, ptr %18) #10
  br label %97

35:                                               ; preds = %31
  %36 = load i32, ptr %18, align 4, !tbaa !11
  %37 = sext i32 %36 to i64
  %38 = getelementptr inbounds [3 x ptr], ptr %16, i64 0, i64 %37
  %39 = load ptr, ptr %38, align 8, !tbaa !22
  %40 = getelementptr inbounds float, ptr %39, i64 0
  %41 = load float, ptr %40, align 4, !tbaa !18
  %42 = fcmp reassoc nsz arcp contract afn oge float %41, 0.000000e+00
  br i1 %42, label %43, label %87

43:                                               ; preds = %35
  call void @llvm.lifetime.start.p0(i64 16, ptr %19) #10
  call void @llvm.memcpy.p0.p0.i64(ptr align 16 %19, ptr align 16 @__const._init_unbounded_coeffs.x, i64 16, i1 false)
  call void @llvm.lifetime.start.p0(i64 16, ptr %20) #10
  %44 = load i32, ptr %18, align 4, !tbaa !11
  %45 = sext i32 %44 to i64
  %46 = getelementptr inbounds [3 x ptr], ptr %16, i64 0, i64 %45
  %47 = load ptr, ptr %46, align 8, !tbaa !22
  %48 = getelementptr inbounds [4 x float], ptr %19, i64 0, i64 0
  %49 = load float, ptr %48, align 16, !tbaa !18
  %50 = load i32, ptr %14, align 4, !tbaa !11
  %51 = call reassoc nsz arcp contract afn float @extrapolate_lut(ptr noundef %47, float noundef %49, i32 noundef %50)
  store float %51, ptr %20, align 4, !tbaa !18
  %52 = getelementptr inbounds float, ptr %20, i64 1
  %53 = load i32, ptr %18, align 4, !tbaa !11
  %54 = sext i32 %53 to i64
  %55 = getelementptr inbounds [3 x ptr], ptr %16, i64 0, i64 %54
  %56 = load ptr, ptr %55, align 8, !tbaa !22
  %57 = getelementptr inbounds [4 x float], ptr %19, i64 0, i64 1
  %58 = load float, ptr %57, align 4, !tbaa !18
  %59 = load i32, ptr %14, align 4, !tbaa !11
  %60 = call reassoc nsz arcp contract afn float @extrapolate_lut(ptr noundef %56, float noundef %58, i32 noundef %59)
  store float %60, ptr %52, align 4, !tbaa !18
  %61 = getelementptr inbounds float, ptr %20, i64 2
  %62 = load i32, ptr %18, align 4, !tbaa !11
  %63 = sext i32 %62 to i64
  %64 = getelementptr inbounds [3 x ptr], ptr %16, i64 0, i64 %63
  %65 = load ptr, ptr %64, align 8, !tbaa !22
  %66 = getelementptr inbounds [4 x float], ptr %19, i64 0, i64 2
  %67 = load float, ptr %66, align 8, !tbaa !18
  %68 = load i32, ptr %14, align 4, !tbaa !11
  %69 = call reassoc nsz arcp contract afn float @extrapolate_lut(ptr noundef %65, float noundef %67, i32 noundef %68)
  store float %69, ptr %61, align 4, !tbaa !18
  %70 = getelementptr inbounds float, ptr %20, i64 3
  %71 = load i32, ptr %18, align 4, !tbaa !11
  %72 = sext i32 %71 to i64
  %73 = getelementptr inbounds [3 x ptr], ptr %16, i64 0, i64 %72
  %74 = load ptr, ptr %73, align 8, !tbaa !22
  %75 = getelementptr inbounds [4 x float], ptr %19, i64 0, i64 3
  %76 = load float, ptr %75, align 4, !tbaa !18
  %77 = load i32, ptr %14, align 4, !tbaa !11
  %78 = call reassoc nsz arcp contract afn float @extrapolate_lut(ptr noundef %74, float noundef %76, i32 noundef %77)
  store float %78, ptr %70, align 4, !tbaa !18
  %79 = getelementptr inbounds [4 x float], ptr %19, i64 0, i64 0
  %80 = getelementptr inbounds [4 x float], ptr %20, i64 0, i64 0
  %81 = load i32, ptr %18, align 4, !tbaa !11
  %82 = sext i32 %81 to i64
  %83 = getelementptr inbounds [3 x ptr], ptr %17, i64 0, i64 %82
  %84 = load ptr, ptr %83, align 8, !tbaa !22
  call void @dt_iop_estimate_exp(ptr noundef %79, ptr noundef %80, i32 noundef 4, ptr noundef %84)
  %85 = load i32, ptr %15, align 4, !tbaa !11
  %86 = add nsw i32 %85, 1
  store i32 %86, ptr %15, align 4, !tbaa !11
  call void @llvm.lifetime.end.p0(i64 16, ptr %20) #10
  call void @llvm.lifetime.end.p0(i64 16, ptr %19) #10
  br label %93

87:                                               ; preds = %35
  %88 = load i32, ptr %18, align 4, !tbaa !11
  %89 = sext i32 %88 to i64
  %90 = getelementptr inbounds [3 x ptr], ptr %17, i64 0, i64 %89
  %91 = load ptr, ptr %90, align 8, !tbaa !22
  %92 = getelementptr inbounds float, ptr %91, i64 0
  store float -1.000000e+00, ptr %92, align 4, !tbaa !18
  br label %93

93:                                               ; preds = %87, %43
  br label %94

94:                                               ; preds = %93
  %95 = load i32, ptr %18, align 4, !tbaa !11
  %96 = add nsw i32 %95, 1
  store i32 %96, ptr %18, align 4, !tbaa !11
  br label %31

97:                                               ; preds = %34
  %98 = load i32, ptr %15, align 4, !tbaa !11
  call void @llvm.lifetime.end.p0(i64 24, ptr %17) #10
  call void @llvm.lifetime.end.p0(i64 24, ptr %16) #10
  call void @llvm.lifetime.end.p0(i64 4, ptr %15) #10
  ret i32 %98
}