; Function Attrs: inlinehint nofree norecurse nosync nounwind memory(readwrite, inaccessiblemem: none) uwtable
define internal fastcc i32 @_init_unbounded_coeffs(ptr noundef %0, ptr noundef %1, ptr noundef %2, ptr noundef %3, ptr noundef %4, ptr noundef %5, i32 noundef %6) unnamed_addr #11 {
  %8 = alloca [3 x ptr], align 16
  %9 = alloca [3 x ptr], align 16
  %10 = alloca [4 x float], align 16
  call void @llvm.lifetime.start.p0(i64 24, ptr nonnull %8) #17
  store ptr %0, ptr %8, align 16, !tbaa !18
  %11 = getelementptr inbounds nuw i8, ptr %8, i64 8
  store ptr %1, ptr %11, align 8, !tbaa !18
  %12 = getelementptr inbounds nuw i8, ptr %8, i64 16
  store ptr %2, ptr %12, align 16, !tbaa !18
  call void @llvm.lifetime.start.p0(i64 24, ptr nonnull %9) #17
  store ptr %3, ptr %9, align 16, !tbaa !18
  %13 = getelementptr inbounds nuw i8, ptr %9, i64 8
  store ptr %4, ptr %13, align 8, !tbaa !18
  %14 = getelementptr inbounds nuw i8, ptr %9, i64 16
  store ptr %5, ptr %14, align 16, !tbaa !18
  %15 = add nsw i32 %6, -1
  %16 = sitofp i32 %15 to float
  %17 = fmul reassoc nsz arcp contract afn float %16, 0x3FE6666660000000
  %18 = fcmp reassoc nsz arcp contract afn ogt float %17, 0.000000e+00
  %19 = fcmp reassoc nsz arcp contract afn olt float %17, %16
  %..i = select reassoc nsz arcp contract afn i1 %19, float %17, float %16
  %20 = select reassoc nsz arcp contract afn i1 %18, float %..i, float 0.000000e+00
  %21 = add nsw i32 %6, -2
  %22 = sitofp i32 %21 to float
  %23 = fcmp reassoc nsz arcp contract afn olt float %20, %22
  %24 = select reassoc nsz arcp contract afn i1 %23, float %20, float %22
  %25 = fptosi float %24 to i32
  %26 = sitofp i32 %25 to float
  %27 = fsub reassoc nsz arcp contract afn float %20, %26
  %28 = sext i32 %25 to i64
  %29 = getelementptr inbounds nuw i8, ptr %10, i64 4
  %30 = fmul reassoc nsz arcp contract afn float %16, 0x3FE99999A0000000
  %31 = fcmp reassoc nsz arcp contract afn ogt float %30, 0.000000e+00
  %32 = fcmp reassoc nsz arcp contract afn olt float %30, %16
  %..i21 = select reassoc nsz arcp contract afn i1 %32, float %30, float %16
  %33 = select reassoc nsz arcp contract afn i1 %31, float %..i21, float 0.000000e+00
  %34 = fcmp reassoc nsz arcp contract afn olt float %33, %22
  %35 = select reassoc nsz arcp contract afn i1 %34, float %33, float %22
  %36 = fptosi float %35 to i32
  %37 = sitofp i32 %36 to float
  %38 = fsub reassoc nsz arcp contract afn float %33, %37
  %39 = sext i32 %36 to i64
  %40 = getelementptr inbounds nuw i8, ptr %10, i64 8
  %41 = fmul reassoc nsz arcp contract afn float %16, 0x3FECCCCCC0000000
  %42 = fcmp reassoc nsz arcp contract afn ogt float %41, 0.000000e+00
  %43 = fcmp reassoc nsz arcp contract afn olt float %41, %16
  %..i22 = select reassoc nsz arcp contract afn i1 %43, float %41, float %16
  %44 = select reassoc nsz arcp contract afn i1 %42, float %..i22, float 0.000000e+00
  %45 = fcmp reassoc nsz arcp contract afn olt float %44, %22
  %46 = select reassoc nsz arcp contract afn i1 %45, float %44, float %22
  %47 = fptosi float %46 to i32
  %48 = sitofp i32 %47 to float
  %49 = fsub reassoc nsz arcp contract afn float %44, %48
  %50 = sext i32 %47 to i64
  %51 = getelementptr inbounds nuw i8, ptr %10, i64 12
  %52 = icmp sgt i32 %6, 1
  %53 = select reassoc nsz arcp contract afn i1 %52, float %16, float 0.000000e+00
  %54 = fcmp reassoc nsz arcp contract afn olt float %53, %22
  %55 = select reassoc nsz arcp contract afn i1 %54, float %53, float %22
  %56 = fptosi float %55 to i32
  %57 = sitofp i32 %56 to float
  %58 = fsub reassoc nsz arcp contract afn float %53, %57
  %59 = sext i32 %56 to i64
  br label %61

60:                                               ; preds = %121
  call void @llvm.lifetime.end.p0(i64 24, ptr nonnull %9) #17
  call void @llvm.lifetime.end.p0(i64 24, ptr nonnull %8) #17
  ret i32 %.1

61:                                               ; preds = %7, %121
  %indvars.iv = phi i64 [ 0, %7 ], [ %indvars.iv.next, %121 ]
  %.02024 = phi i32 [ 0, %7 ], [ %.1, %121 ]
  %62 = getelementptr inbounds nuw [3 x ptr], ptr %8, i64 0, i64 %indvars.iv
  %63 = load ptr, ptr %62, align 8, !tbaa !18
  %64 = load float, ptr %63, align 4, !tbaa !14
  %65 = fcmp reassoc nsz arcp contract afn ult float %64, 0.000000e+00
  br i1 %65, label %118, label %66

66:                                               ; preds = %61
  call void @llvm.lifetime.start.p0(i64 16, ptr nonnull %10) #17
  %67 = getelementptr inbounds float, ptr %63, i64 %28
  %68 = load float, ptr %67, align 4, !tbaa !14
  %69 = getelementptr i8, ptr %67, i64 4
  %70 = load float, ptr %69, align 4, !tbaa !14
  %71 = fsub reassoc nsz arcp contract afn float %70, %68
  %72 = fmul reassoc nsz arcp contract afn float %71, %27
  %73 = fadd reassoc nsz arcp contract afn float %72, %68
  store float %73, ptr %10, align 16, !tbaa !14
  %74 = getelementptr inbounds float, ptr %63, i64 %39
  %75 = load float, ptr %74, align 4, !tbaa !14
  %76 = getelementptr i8, ptr %74, i64 4
  %77 = load float, ptr %76, align 4, !tbaa !14
  %78 = fsub reassoc nsz arcp contract afn float %77, %75
  %79 = fmul reassoc nsz arcp contract afn float %78, %38
  %80 = fadd reassoc nsz arcp contract afn float %79, %75
  store float %80, ptr %29, align 4, !tbaa !14
  %81 = getelementptr inbounds float, ptr %63, i64 %50
  %82 = load float, ptr %81, align 4, !tbaa !14
  %83 = getelementptr i8, ptr %81, i64 4
  %84 = load float, ptr %83, align 4, !tbaa !14
  %85 = fsub reassoc nsz arcp contract afn float %84, %82
  %86 = fmul reassoc nsz arcp contract afn float %85, %49
  %87 = fadd reassoc nsz arcp contract afn float %86, %82
  store float %87, ptr %40, align 8, !tbaa !14
  %88 = getelementptr inbounds float, ptr %63, i64 %59
  %89 = load float, ptr %88, align 4, !tbaa !14
  %90 = getelementptr i8, ptr %88, i64 4
  %91 = load float, ptr %90, align 4, !tbaa !14
  %92 = fsub reassoc nsz arcp contract afn float %91, %89
  %93 = fmul reassoc nsz arcp contract afn float %92, %58
  %94 = fadd reassoc nsz arcp contract afn float %93, %89
  store float %94, ptr %51, align 4, !tbaa !14
  %95 = getelementptr inbounds nuw [3 x ptr], ptr %9, i64 0, i64 %indvars.iv
  %96 = load ptr, ptr %95, align 8, !tbaa !18
  %97 = fdiv reassoc nsz arcp contract afn float 1.000000e+00, %94
  br label %98

98:                                               ; preds = %112, %66
  %indvars.iv.i = phi i64 [ 0, %66 ], [ %indvars.iv.next.i, %112 ]
  %.040.i = phi float [ 0.000000e+00, %66 ], [ %.1.i, %112 ]
  %.03339.i = phi i32 [ 0, %66 ], [ %.134.i, %112 ]
  %99 = getelementptr inbounds nuw float, ptr %10, i64 %indvars.iv.i
  %100 = load float, ptr %99, align 4, !tbaa !14
  %101 = fmul reassoc nsz arcp contract afn float %100, %97
  %102 = getelementptr inbounds nuw float, ptr @__const._init_unbounded_coeffs.x, i64 %indvars.iv.i
  %103 = load float, ptr %102, align 4, !tbaa !14
  %104 = fcmp reassoc nsz arcp contract afn ogt float %101, 0.000000e+00
  %105 = fcmp reassoc nsz arcp contract afn ogt float %103, 0.000000e+00
  %or.cond.i = select i1 %104, i1 %105, i1 false
  br i1 %or.cond.i, label %106, label %112

106:                                              ; preds = %98
  %107 = tail call reassoc nsz arcp contract afn float @llvm.log.f32(float %101)
  %108 = tail call reassoc nsz arcp contract afn float @llvm.log.f32(float %103)
  %109 = fdiv reassoc nsz arcp contract afn float %107, %108
  %110 = fadd reassoc nsz arcp contract afn float %109, %.040.i
  %111 = add nsw i32 %.03339.i, 1
  br label %112

112:                                              ; preds = %106, %98
  %.134.i = phi i32 [ %111, %106 ], [ %.03339.i, %98 ]
  %.1.i = phi nsz float [ %110, %106 ], [ %.040.i, %98 ]
  %indvars.iv.next.i = add nuw nsw i64 %indvars.iv.i, 1
  %exitcond.not.i = icmp eq i64 %indvars.iv.next.i, 3
  br i1 %exitcond.not.i, label %dt_iop_estimate_exp.exit, label %98

dt_iop_estimate_exp.exit:                         ; preds = %112
  %.not.i = icmp eq i32 %.134.i, 0
  %113 = sitofp i32 %.134.i to float
  %114 = fdiv reassoc nsz arcp contract afn float %.1.i, %113
  %.2.i = select nsz i1 %.not.i, float 1.000000e+00, float %114
  store float 1.000000e+00, ptr %96, align 4, !tbaa !14
  %115 = getelementptr inbounds nuw i8, ptr %96, i64 4
  store float %94, ptr %115, align 4, !tbaa !14
  %116 = getelementptr inbounds nuw i8, ptr %96, i64 8
  store float %.2.i, ptr %116, align 4, !tbaa !14
  %117 = add nsw i32 %.02024, 1
  call void @llvm.lifetime.end.p0(i64 16, ptr nonnull %10) #17
  br label %121

118:                                              ; preds = %61
  %119 = getelementptr inbounds nuw [3 x ptr], ptr %9, i64 0, i64 %indvars.iv
  %120 = load ptr, ptr %119, align 8, !tbaa !18
  store float -1.000000e+00, ptr %120, align 4, !tbaa !14
  br label %121

121:                                              ; preds = %dt_iop_estimate_exp.exit, %118
  %.1 = phi i32 [ %117, %dt_iop_estimate_exp.exit ], [ %.02024, %118 ]
  %indvars.iv.next = add nuw nsw i64 %indvars.iv, 1
  %exitcond.not = icmp eq i64 %indvars.iv.next, 3
  br i1 %exitcond.not, label %60, label %61
}